target datalayout = "e-m:e-p270:32:32-p271:32:32-p272:64:64-i64:64-i128:128-f80:128-n8:16:32:64-S128"
target triple = "x86_64-pc-linux-gnu"

%struct.RClass_and_rb_classext_t = type { %struct.RClass, %struct.rb_classext_struct }
%struct.RClass = type { %struct.RBasic, i64, ptr }
%struct.RBasic = type { i64, i64 }
%struct.rb_classext_struct = type { ptr, ptr, ptr, ptr, ptr, i64, ptr, ptr, ptr, ptr, i64, i64, %union.anon, i64, i32, i8, i8, i64 }
%union.anon = type { %struct.anon }
%struct.anon = type { ptr }

@rb_eTypeError = external global i64, align 8
@rb_cBasicObject = dso_local global i64 0, align 8
@.str.15 = private unnamed_addr constant [20 x i8] c"uninitialized class\00", align 1

; Function Attrs: inlinehint nounwind sspstrong uwtable
define internal i64 @RCLASS_SUPER(i64 noundef %0) #2 {
  %2 = alloca i64, align 8
  store i64 %0, ptr %2, align 8, !tbaa !11
  %3 = load i64, ptr %2, align 8, !tbaa !11
  %4 = inttoptr i64 %3 to ptr
  %5 = getelementptr inbounds nuw %struct.RClass, ptr %4, i32 0, i32 1
  %6 = load i64, ptr %5, align 8, !tbaa !31
  ret i64 %6
}

; Function Attrs: nounwind sspstrong willreturn memory(read) uwtable
define dso_local i64 @rb_class_superclass(i64 noundef %0) #6 {
  %2 = alloca i64, align 8
  %3 = alloca i64, align 8
  %4 = alloca i64, align 8
  %5 = alloca i32, align 4
  store i64 %0, ptr %3, align 8, !tbaa !11
  call void @llvm.lifetime.start.p0(i64 8, ptr %4) #28
  %6 = load i64, ptr %3, align 8, !tbaa !11
  %7 = call i64 @RCLASS_SUPER(i64 noundef %6)
  store i64 %7, ptr %4, align 8, !tbaa !11
  %8 = load i64, ptr %4, align 8, !tbaa !11
  %9 = icmp ne i64 %8, 0
  br i1 %9, label %17, label %10

10:                                               ; preds = %1
  %11 = load i64, ptr %3, align 8, !tbaa !11
  %12 = load i64, ptr @rb_cBasicObject, align 8, !tbaa !11
  %13 = icmp eq i64 %11, %12
  br i1 %13, label %14, label %15

14:                                               ; preds = %10
  store i64 4, ptr %2, align 8
  store i32 1, ptr %5, align 4
  br label %40

15:                                               ; preds = %10
  %16 = load i64, ptr @rb_eTypeError, align 8, !tbaa !11
  call void (i64, ptr, ...) @rb_raise(i64 noundef %16, ptr noundef @.str.15) #31
  unreachable

17:                                               ; preds = %1
  %18 = load i64, ptr %3, align 8, !tbaa !11
  %19 = inttoptr i64 %18 to ptr
  %20 = getelementptr inbounds nuw %struct.RClass_and_rb_classext_t, ptr %19, i32 0, i32 1
  %21 = getelementptr inbounds nuw %struct.rb_classext_struct, ptr %20, i32 0, i32 5
  %22 = load i64, ptr %21, align 8, !tbaa !63
  %23 = icmp ne i64 %22, 0
  br i1 %23, label %25, label %24

24:                                               ; preds = %17
  store i64 4, ptr %2, align 8
  store i32 1, ptr %5, align 4
  br label %40

25:                                               ; preds = %17
  %26 = load i64, ptr %3, align 8, !tbaa !11
  %27 = inttoptr i64 %26 to ptr
  %28 = getelementptr inbounds nuw %struct.RClass_and_rb_classext_t, ptr %27, i32 0, i32 1
  %29 = getelementptr inbounds nuw %struct.rb_classext_struct, ptr %28, i32 0, i32 6
  %30 = load ptr, ptr %29, align 8, !tbaa !64
  %31 = load i64, ptr %3, align 8, !tbaa !11
  %32 = inttoptr i64 %31 to ptr
  %33 = getelementptr inbounds nuw %struct.RClass_and_rb_classext_t, ptr %32, i32 0, i32 1
  %34 = getelementptr inbounds nuw %struct.rb_classext_struct, ptr %33, i32 0, i32 5
  %35 = load i64, ptr %34, align 8, !tbaa !63
  %36 = sub i64 %35, 1
  %37 = getelementptr i64, ptr %30, i64 %36
  %38 = load i64, ptr %37, align 8, !tbaa !11
  store i64 %38, ptr %4, align 8, !tbaa !11
  %39 = load i64, ptr %4, align 8, !tbaa !11
  store i64 %39, ptr %2, align 8
  store i32 1, ptr %5, align 4
  br label %40

40:                                               ; preds = %25, %24, %14
  call void @llvm.lifetime.end.p0(i64 8, ptr %4) #28
  %41 = load i64, ptr %2, align 8
  ret i64 %41
}