; Function Attrs: mustprogress nofree nounwind sspstrong willreturn memory(read) uwtable
define dso_local i64 @rb_class_superclass(i64 noundef %0) #11 {
  %2 = inttoptr i64 %0 to ptr
  %3 = getelementptr inbounds nuw i8, ptr %2, i64 16
  %4 = load i64, ptr %3, align 8, !tbaa !25
  %.not = icmp eq i64 %4, 0
  br i1 %.not, label %5, label %10

5:                                                ; preds = %1
  %6 = load i64, ptr @rb_cBasicObject, align 8, !tbaa !7
  %7 = icmp eq i64 %0, %6
  br i1 %7, label %19, label %8

8:                                                ; preds = %5
  %9 = load i64, ptr @rb_eTypeError, align 8, !tbaa !7
  tail call void (i64, ptr, ...) @rb_raise(i64 noundef %9, ptr noundef nonnull @.str.15) #24
  unreachable

10:                                               ; preds = %1
  %11 = getelementptr inbounds nuw i8, ptr %2, i64 72
  %12 = load i64, ptr %11, align 8, !tbaa !47
  %.not9 = icmp eq i64 %12, 0
  br i1 %.not9, label %19, label %13

13:                                               ; preds = %10
  %14 = getelementptr inbounds nuw i8, ptr %2, i64 80
  %15 = load ptr, ptr %14, align 8, !tbaa !48
  %16 = getelementptr i64, ptr %15, i64 %12
  %17 = getelementptr i8, ptr %16, i64 -8
  %18 = load i64, ptr %17, align 8, !tbaa !7
  br label %19

19:                                               ; preds = %10, %5, %13
  %.0 = phi i64 [ %18, %13 ], [ 4, %5 ], [ 4, %10 ]
  ret i64 %.0
}